LIBRARY TAAFSAPPLIB

DESCRIPTION 'Transarc Application Base DLL'

EXPORTS

    DllEntryPoint

   ?TaLocaleReallocFunction@@YAHPAPAXIPAIII@Z
   ?TaLocale_EnumModule@@YAHIPAPAUHINSTANCE__@@PAG@Z
   ?TaLocale_GetDialogResource@@YAPBUDLGTEMPLATE@@HPAPAUHINSTANCE__@@@Z
   ?TaLocale_GetLanguage@@YAGXZ
   ?TaLocale_LoadCorrespondingModule@@YAPAUHINSTANCE__@@PAU1@G@Z
   ?TaLocale_GetLanguageOverride@@YAGXZ
   ?TaLocale_RemoveLanguageOverride@@YAXXZ
   ?TaLocale_SetLanguageOverride@@YAXG@Z
   ?TaLocale_LoadImage@@YAPAXHIHHI@Z
   ?TaLocale_LoadMenu@@YAPAUHMENU__@@H@Z
   ?TaLocale_LoadIcon@@YAPAUHICON__@@H@Z
   ?TaLocale_LoadAccelerators@@YAPAUHACCEL__@@H@Z
   ?TaLocale_GetResource@@YAPBXPBD0GPAPAUHINSTANCE__@@@Z
   ?TaLocale_GetResourceEx@@YAPBXPBD0GPAPAUHINSTANCE__@@H@Z
   ?TaLocale_GetStringResource@@YAPBUSTRINGTEMPLATE@@HPAPAUHINSTANCE__@@@Z
   ?TaLocale_Initialize@@YAXXZ
   ?TaLocale_SetLanguage@@YAXG@Z
   ?TaLocale_SpecifyModule@@YAXPAUHINSTANCE__@@G@Z
   ?Message@@YAHIHHPBDZZ
   ?Message@@YAHIHPBD0ZZ
   ?Message@@YAHIPBD00ZZ
   ?Message@@YAHIPBDH0ZZ
   ?Message_ThreadProc@@YGKPAX@Z
   ?ModalDialog@@YAHHPAUHWND__@@P6GH0IIJ@Z@Z
   ?ModalDialogParam@@YAHHPAUHWND__@@P6GH0IIJ@ZJ@Z
   ?ModelessDialog@@YAPAUHWND__@@HPAU1@P6GH0IIJ@Z@Z
   ?ModelessDialogParam@@YAPAUHWND__@@HPAU1@P6GH0IIJ@ZJ@Z
   ?vMessage@@YAHIHHPBDPAD@Z
   ?vMessage@@YAHIHPBD0PAD@Z
   ?vMessage@@YAHIJJPBDPAD@Z
   ?vMessage@@YAHIPBD00PAD@Z
   ?vMessage@@YAHIPBDH0PAD@Z
   ?AnsiToString@@YAPADPBD@Z
   ?AnsiToUnicode@@YAPAGPBD@Z
   ?ChangeExtension@@YAXPADPBD1H@Z
   ?CloneAnsi@@YAPADPAD@Z
   ?CloneMultiString@@YAPADPBD@Z
   ?CloneString@@YAPADPAD@Z
   ?CloneUnicode@@YAPADPAG@Z
   ?CopyAnsiToString@@YAXPADPBDI@Z
   ?CopyAnsiToUnicode@@YAXPAGPBDI@Z
   ?CopyBaseFileName@@YAXPADPBD@Z
   ?CopyStringToAnsi@@YAXPADPBDI@Z
   ?CopyStringToUnicode@@YAXPAGPBDI@Z
   ?CopyUnicodeToAnsi@@YAXPADPBGI@Z
   ?CopyUnicodeToString@@YAXPADPBGI@Z
   ?FindBaseFileName@@YAPBDPBD@Z
   ?FindExtension@@YAPBDPBD@Z
   ?FixFormatString@@YAPADPAD@Z
   ?FormatBytes@@YAXPAD0N@Z
   ?FormatDouble@@YAXPAD0N@Z
   ?FormatElapsed@@YAHPAD0PAU_SYSTEMTIME@@@Z
   ?FormatError@@YAHPAD0K@Z
   ?FormatLargeInt@@YAXPAD0PAT_LARGE_INTEGER@@@Z
   ?FormatMultiString@@YAXPAPADHHPBDZZ
   ?FormatMultiString@@YAXPAPADHPBD1ZZ
   ?FormatSockAddr@@YAXPAD0PAUsockaddr_in@@@Z
   ?FormatString@@YAPADHPBDZZ
   ?FormatString@@YAPADPBD0ZZ
   ?FormatTime@@YAHPAD0PAU_SYSTEMTIME@@HH@Z
   ?FreeString@@YAXPBX0@Z
   ?GetString@@YAXPADHH@Z
   ?GetStringLength@@YAIH@Z
   ?SearchMultiString@@YAHPBD0H@Z
   ?SetErrorTranslationFunction@@YAXP6GHPADKG@Z@Z
   ?StringToAnsi@@YAPADPBD@Z
   ?StringToUnicode@@YAPAGPBD@Z
   ?TranslateError@@YAHPADK@Z
   ?TranslateErrorFunc@@YAHPADKG@Z
   ?UnicodeToAnsi@@YAPADPBG@Z
   ?UnicodeToString@@YAPADPBG@Z
   ?lsplitpath@@YAXPBDPAD111@Z
   ?lstrchr@@YAPBDPBDD@Z
   ?lstrncmpi@@YAHPBD0I@Z
   ?lstrncpy@@YAXPADPBDI@Z
   ?lstrrchr@@YAPBDPBDD@Z
   ?lstrupr@@YAXPAD@Z
   ?lstrzcpy@@YAXPADPBDI@Z
   ?vFormatMultiString@@YAXPAPADHHPBDPAD@Z
   ?vFormatMultiString@@YAXPAPADHJPBDPAD@Z
   ?vFormatMultiString@@YAXPAPADHPBD1PAD@Z
   ?vFormatString@@YAPADHPBDPAD@Z
   ?vFormatString@@YAPADJPBDPAD@Z
   ?vFormatString@@YAPADPBD0PAD@Z
   ShowMemoryManager
   WhileMemoryManagerShowing
   IsMemoryManagerMessage
   MemMgr_AllocateMemory
   MemMgr_FreeMemory
   MemMgr_TrackNew
   MemMgr_TrackDelete
